target datalayout = "e-m:e-p270:32:32-p271:32:32-p272:64:64-i64:64-i128:128-f80:128-n8:16:32:64-S128"
target triple = "x86_64-pc-linux-gnu"

%"class.sat::elim_vars" = type { ptr, ptr, %"class.dd::bdd_manager", %class.random_gen, %class.svector.2, %class.svector.2, i32, %class.svector.2, %class.svector.2, i32, i32, i32, i32 }
%"class.dd::bdd_manager" = type { i32, %class.svector, %class.ptr_hashtable, %class.hashtable, %class.svector.2, %class.svector.2, ptr, %class.svector.2, %class.svector.2, %class.svector.2, %class.svector.2, %class.small_object_allocator, %class.svector.2, i32, %class.svector.4, %class.svector.2, i8, i8, i32, %class.svector.2, %class.svector.2, %class.svector.2, %class.vector.6, %class.svector.2, i32, i32 }
%class.svector = type { %class.vector }
%class.vector = type { ptr }
%class.ptr_hashtable = type { %class.core_hashtable.base, [4 x i8] }
%class.core_hashtable.base = type <{ ptr, i32, i32, i32 }>
%class.hashtable = type { %class.core_hashtable.base.1, [4 x i8] }
%class.core_hashtable.base.1 = type <{ ptr, i32, i32, i32 }>
%class.small_object_allocator = type { [32 x ptr], [32 x ptr], i64 }
%class.svector.4 = type { %class.vector.5 }
%class.vector.5 = type { ptr }
%class.vector.6 = type { ptr }
%class.random_gen = type { i32 }
%class.svector.2 = type { %class.vector.3 }
%class.vector.3 = type { ptr }
%"class.sat::simplifier" = type { ptr, i32, %"class.sat::use_list", %"class.sat::ext_use_list", %"class.sat::clause_set", %class.svector.10, i32, %class.tracked_uint_set, i8, %"class.sat::tmp_clause", %class.svector.12, i32, i32, i8, i8, i8, i8, i32, i8, i8, i32, i8, i32, i8, i8, i32, i32, i32, i32, i32, i32, i32, i32, i32, i32, i8, i32, i8, i8, i32, i32, i32, i32, i32, i32, i32, i32, i32, i32, i32, i8, i32, %class.ptr_vector, %class.svector.14, %class.svector.16, %class.svector.16, %class.svector.14 }
%"class.sat::use_list" = type { %class.vector.7 }
%class.vector.7 = type { ptr }
%"class.sat::ext_use_list" = type { %class.vector.8 }
%class.vector.8 = type { ptr }
%"class.sat::clause_set" = type { %class.svector.2, %class.ptr_vector }
%class.svector.10 = type { %class.vector.11 }
%class.vector.11 = type { ptr }
%class.tracked_uint_set = type { %class.svector.12, %class.svector.2 }
%"class.sat::tmp_clause" = type { ptr }
%class.svector.12 = type { %class.vector.13 }
%class.vector.13 = type { ptr }
%class.ptr_vector = type { %class.vector.9 }
%class.vector.9 = type { ptr }
%class.svector.16 = type { %class.vector.17 }
%class.vector.17 = type { ptr }
%class.svector.14 = type { %class.vector.15 }
%class.vector.15 = type { ptr }

; Function Attrs: mustprogress nounwind uwtable
define linkonce_odr hidden void @_ZN6vectorIjLb0EjEC2Ev(ptr noundef nonnull align 8 dereferenceable(8) %0) unnamed_addr #5 comdat align 2 {
  %2 = alloca ptr, align 8
  store ptr %0, ptr %2, align 8, !tbaa !237
  %3 = load ptr, ptr %2, align 8
  %4 = getelementptr inbounds nuw %class.vector.3, ptr %3, i32 0, i32 0
  store ptr null, ptr %4, align 8, !tbaa !239
  ret void
}

; Function Attrs: mustprogress nounwind uwtable
define linkonce_odr hidden void @_ZN7svectorIjjEC2Ev(ptr noundef nonnull align 8 dereferenceable(8) %0) unnamed_addr #5 comdat align 2 {
  %2 = alloca ptr, align 8
  store ptr %0, ptr %2, align 8, !tbaa !75
  %3 = load ptr, ptr %2, align 8
  call void @_ZN6vectorIjLb0EjEC2Ev(ptr noundef nonnull align 8 dereferenceable(8) %3) #3
  ret void
}

; Function Attrs: mustprogress nounwind uwtable
define linkonce_odr hidden void @_ZN10random_genC2Ej(ptr noundef nonnull align 4 dereferenceable(4) %0, i32 noundef %1) unnamed_addr #5 comdat align 2 {
  %3 = alloca ptr, align 8
  %4 = alloca i32, align 4
  store ptr %0, ptr %3, align 8, !tbaa !71
  store i32 %1, ptr %4, align 4, !tbaa !73
  %5 = load ptr, ptr %3, align 8
  %6 = getelementptr inbounds nuw %class.random_gen, ptr %5, i32 0, i32 0
  %7 = load i32, ptr %4, align 4, !tbaa !73
  store i32 %7, ptr %6, align 4, !tbaa !74
  ret void
}

; Function Attrs: mustprogress uwtable
define hidden void @_ZN3sat9elim_varsC2ERNS_10simplifierE(ptr noundef nonnull align 8 dereferenceable(808) %0, ptr noundef nonnull align 8 dereferenceable(288) %1) unnamed_addr #4 align 2 personality ptr @__gxx_personality_v0 {
  %3 = alloca ptr, align 8
  %4 = alloca ptr, align 8
  %5 = alloca ptr, align 8
  %6 = alloca i32, align 4
  store ptr %0, ptr %3, align 8, !tbaa !3
  store ptr %1, ptr %4, align 8, !tbaa !8
  %7 = load ptr, ptr %3, align 8
  %8 = getelementptr inbounds nuw %"class.sat::elim_vars", ptr %7, i32 0, i32 0
  %9 = load ptr, ptr %4, align 8, !tbaa !8
  store ptr %9, ptr %8, align 8, !tbaa !8
  %10 = getelementptr inbounds nuw %"class.sat::elim_vars", ptr %7, i32 0, i32 1
  %11 = load ptr, ptr %4, align 8, !tbaa !8
  %12 = getelementptr inbounds nuw %"class.sat::simplifier", ptr %11, i32 0, i32 0
  %13 = load ptr, ptr %12, align 8, !tbaa !10
  store ptr %13, ptr %10, align 8, !tbaa !44
  %14 = getelementptr inbounds nuw %"class.sat::elim_vars", ptr %7, i32 0, i32 2
  call void @_ZN2dd11bdd_managerC1Ej(ptr noundef nonnull align 8 dereferenceable(728) %14, i32 noundef 20)
  %15 = getelementptr inbounds nuw %"class.sat::elim_vars", ptr %7, i32 0, i32 3
  invoke void @_ZN10random_genC2Ej(ptr noundef nonnull align 4 dereferenceable(4) %15, i32 noundef 0)
          to label %16 unwind label %26

16:                                               ; preds = %2
  %17 = getelementptr inbounds nuw %"class.sat::elim_vars", ptr %7, i32 0, i32 4
  call void @_ZN7svectorIjjEC2Ev(ptr noundef nonnull align 8 dereferenceable(8) %17) #3
  %18 = getelementptr inbounds nuw %"class.sat::elim_vars", ptr %7, i32 0, i32 5
  call void @_ZN7svectorIjjEC2Ev(ptr noundef nonnull align 8 dereferenceable(8) %18) #3
  %19 = getelementptr inbounds nuw %"class.sat::elim_vars", ptr %7, i32 0, i32 7
  call void @_ZN7svectorIjjEC2Ev(ptr noundef nonnull align 8 dereferenceable(8) %19) #3
  %20 = getelementptr inbounds nuw %"class.sat::elim_vars", ptr %7, i32 0, i32 8
  call void @_ZN7svectorIjjEC2Ev(ptr noundef nonnull align 8 dereferenceable(8) %20) #3
  %21 = getelementptr inbounds nuw %"class.sat::elim_vars", ptr %7, i32 0, i32 6
  store i32 0, ptr %21, align 8, !tbaa !45
  %22 = getelementptr inbounds nuw %"class.sat::elim_vars", ptr %7, i32 0, i32 12
  store i32 11, ptr %22, align 4, !tbaa !67
  %23 = getelementptr inbounds nuw %"class.sat::elim_vars", ptr %7, i32 0, i32 9
  store i32 0, ptr %23, align 8, !tbaa !68
  %24 = getelementptr inbounds nuw %"class.sat::elim_vars", ptr %7, i32 0, i32 10
  store i32 0, ptr %24, align 4, !tbaa !69
  %25 = getelementptr inbounds nuw %"class.sat::elim_vars", ptr %7, i32 0, i32 11
  store i32 0, ptr %25, align 8, !tbaa !70
  ret void

26:                                               ; preds = %2
  %27 = landingpad { ptr, i32 }
          cleanup
  %28 = extractvalue { ptr, i32 } %27, 0
  store ptr %28, ptr %5, align 8
  %29 = extractvalue { ptr, i32 } %27, 1
  store i32 %29, ptr %6, align 4
  call void @_ZN2dd11bdd_managerD1Ev(ptr noundef nonnull align 8 dereferenceable(728) %14) #3
  br label %30

30:                                               ; preds = %26
  %31 = load ptr, ptr %5, align 8
  %32 = load i32, ptr %6, align 4
  %33 = insertvalue { ptr, i32 } poison, ptr %31, 0
  %34 = insertvalue { ptr, i32 } %33, i32 %32, 1
  resume { ptr, i32 } %34
}