; Function Attrs: mustprogress uwtable
define hidden void @_ZN3sat9elim_varsC2ERNS_10simplifierE(ptr noundef nonnull align 8 dereferenceable(808) initializes((0, 16)) %0, ptr noundef nonnull align 8 dereferenceable(288) %1) unnamed_addr #3 align 2 personality ptr @__gxx_personality_v0 {
  store ptr %1, ptr %0, align 8, !tbaa !3
  %3 = getelementptr inbounds nuw i8, ptr %0, i64 8
  %4 = load ptr, ptr %1, align 8, !tbaa !8
  store ptr %4, ptr %3, align 8, !tbaa !42
  %5 = getelementptr inbounds nuw i8, ptr %0, i64 16
  tail call void @_ZN2dd11bdd_managerC1Ej(ptr noundef nonnull align 8 dereferenceable(728) %5, i32 noundef 20)
  %6 = getelementptr inbounds nuw i8, ptr %0, i64 744
  store i32 0, ptr %6, align 8, !tbaa !43
  %7 = getelementptr inbounds nuw i8, ptr %0, i64 752
  %8 = getelementptr inbounds nuw i8, ptr %0, i64 776
  %9 = getelementptr inbounds nuw i8, ptr %0, i64 804
  tail call void @llvm.memset.p0.i64(ptr noundef nonnull align 8 dereferenceable(20) %7, i8 0, i64 20, i1 false)
  tail call void @llvm.memset.p0.i64(ptr noundef nonnull align 8 dereferenceable(16) %8, i8 0, i64 16, i1 false)
  store i32 11, ptr %9, align 4, !tbaa !45
  %10 = getelementptr inbounds nuw i8, ptr %0, i64 792
  store i32 0, ptr %10, align 8, !tbaa !66
  %11 = getelementptr inbounds nuw i8, ptr %0, i64 796
  store i32 0, ptr %11, align 4, !tbaa !67
  %12 = getelementptr inbounds nuw i8, ptr %0, i64 800
  store i32 0, ptr %12, align 8, !tbaa !68
  ret void
}